; Function Attrs: nounwind uwtable
define dso_local void @ginGetStats(ptr noundef %0, ptr noundef writeonly captures(none) initializes((0, 28)) %1) local_unnamed_addr #0 {
  %3 = tail call i32 @ReadBuffer(ptr noundef %0, i32 noundef 0) #7
  tail call void @LockBuffer(i32 noundef %3, i32 noundef 1) #7
  %4 = icmp slt i32 %3, 0
  br i1 %4, label %5, label %11

5:                                                ; preds = %2
  %6 = load ptr, ptr @LocalBufferBlockPointers, align 8
  %7 = xor i32 %3, -1
  %8 = zext nneg i32 %7 to i64
  %9 = getelementptr inbounds nuw ptr, ptr %6, i64 %8
  %10 = load ptr, ptr %9, align 8
  br label %BufferGetPage.exit

11:                                               ; preds = %2
  %12 = load ptr, ptr @BufferBlocks, align 8
  %13 = add nsw i32 %3, -1
  %14 = sext i32 %13 to i64
  %15 = shl nsw i64 %14, 13
  %16 = getelementptr inbounds nuw i8, ptr %12, i64 %15
  br label %BufferGetPage.exit

BufferGetPage.exit:                               ; preds = %5, %11
  %.0.i.i = phi ptr [ %10, %5 ], [ %16, %11 ]
  %17 = getelementptr inbounds nuw i8, ptr %.0.i.i, i64 36
  %18 = load i32, ptr %17, align 4
  store i32 %18, ptr %1, align 8
  %19 = getelementptr inbounds nuw i8, ptr %.0.i.i, i64 48
  %20 = load i32, ptr %19, align 8
  %21 = getelementptr inbounds nuw i8, ptr %1, i64 4
  store i32 %20, ptr %21, align 4
  %22 = getelementptr inbounds nuw i8, ptr %.0.i.i, i64 52
  %23 = load i32, ptr %22, align 4
  %24 = getelementptr inbounds nuw i8, ptr %1, i64 8
  store i32 %23, ptr %24, align 8
  %25 = getelementptr inbounds nuw i8, ptr %.0.i.i, i64 56
  %26 = load i32, ptr %25, align 8
  %27 = getelementptr inbounds nuw i8, ptr %1, i64 12
  store i32 %26, ptr %27, align 4
  %28 = getelementptr inbounds nuw i8, ptr %.0.i.i, i64 64
  %29 = load i64, ptr %28, align 8
  %30 = getelementptr inbounds nuw i8, ptr %1, i64 16
  store i64 %29, ptr %30, align 8
  %31 = getelementptr inbounds nuw i8, ptr %.0.i.i, i64 72
  %32 = load i32, ptr %31, align 8
  %33 = getelementptr inbounds nuw i8, ptr %1, i64 24
  store i32 %32, ptr %33, align 8
  tail call void @UnlockReleaseBuffer(i32 noundef %3) #7
  ret void
}